; Function Attrs: mustprogress uwtable
define hidden void @_ZN6google8protobuf2io19OstreamOutputStreamC2EPSoi(ptr noundef nonnull align 8 dereferenceable(72) initializes((0, 24)) %0, ptr noundef %1, i32 noundef %2) unnamed_addr #3 align 2 personality ptr @__gxx_personality_v0 {
  store ptr getelementptr inbounds nuw inrange(-16, 56) (i8, ptr @_ZTVN6google8protobuf2io19OstreamOutputStreamE, i64 16), ptr %0, align 8, !tbaa !3
  %4 = getelementptr inbounds nuw i8, ptr %0, i64 8
  store ptr getelementptr inbounds nuw inrange(-16, 24) (i8, ptr @_ZTVN6google8protobuf2io19OstreamOutputStream26CopyingOstreamOutputStreamE, i64 16), ptr %4, align 8, !tbaa !3
  %5 = getelementptr inbounds nuw i8, ptr %0, i64 16
  store ptr %1, ptr %5, align 8, !tbaa !46
  %6 = getelementptr inbounds nuw i8, ptr %0, i64 24
  tail call void @_ZN6google8protobuf2io26CopyingOutputStreamAdaptorC1EPNS1_19CopyingOutputStreamEi(ptr noundef nonnull align 8 dereferenceable(48) %6, ptr noundef nonnull %4, i32 noundef %2)
  ret void
}